; Function Attrs: nounwind uwtable
define internal noalias noundef ptr @connCreateAcceptedUnix(ptr noundef %0, i32 noundef %1, ptr readnone captures(none) %2) #0 {
  %4 = tail call noalias dereferenceable_or_null(72) ptr @zcalloc(i64 noundef 72) #10
  store ptr @CT_Unix, ptr %4, align 8, !tbaa !43
  %5 = getelementptr inbounds nuw i8, ptr %4, i64 16
  %6 = getelementptr inbounds nuw i8, ptr %4, i64 24
  store i16 1024, ptr %6, align 8, !tbaa !46
  %7 = getelementptr inbounds nuw i8, ptr %4, i64 40
  store ptr %0, ptr %7, align 8, !tbaa !47
  store i32 %1, ptr %5, align 8, !tbaa !48
  %8 = getelementptr inbounds nuw i8, ptr %4, i64 8
  store i32 2, ptr %8, align 8, !tbaa !49
  ret ptr %4
}